target datalayout = "e-m:e-p270:32:32-p271:32:32-p272:64:64-i64:64-i128:128-f80:128-n8:16:32:64-S128"
target triple = "x86_64-pc-linux-gnu"

%struct._dfilter_macro_t = type { ptr, ptr, i8, ptr, ptr, i32, ptr }
%struct.filter_list_t = type { i32, ptr }
%struct._GList = type { ptr, ptr, ptr }
%struct.filter_def = type { ptr, ptr }

@macros_table = internal global ptr null, align 8
@.str = private unnamed_addr constant [8 x i8] c"DFilter\00", align 1
@.str.1 = private unnamed_addr constant [29 x i8] c"epan/dfilter/dfilter-macro.c\00", align 1
@__func__.dfilter_macro_reload = private unnamed_addr constant [21 x i8] c"dfilter_macro_reload\00", align 1
@.str.2 = private unnamed_addr constant [23 x i8] c"Invalid macro '%s': %s\00", align 1
@g_ascii_table = external constant ptr, align 8
@.str.15 = private unnamed_addr constant [11 x i8] c"empty name\00", align 1
@.str.16 = private unnamed_addr constant [11 x i8] c"empty text\00", align 1
@.str.17 = private unnamed_addr constant [21 x i8] c"invalid char in name\00", align 1
@.str.18 = private unnamed_addr constant [20 x i8] c"name already exists\00", align 1

; Function Attrs: null_pointer_is_valid sspstrong uwtable
define hidden ptr @macro_new(ptr noundef %0, ptr noundef %1) #0 {
  %3 = alloca ptr, align 8
  %4 = alloca ptr, align 8
  %5 = alloca ptr, align 8
  %6 = alloca i64, align 8
  %7 = alloca i64, align 8
  %8 = alloca ptr, align 8
  %9 = alloca ptr, align 8
  store ptr %0, ptr %3, align 8
  store ptr %1, ptr %4, align 8
  call void @llvm.lifetime.start.p0(i64 8, ptr %5) #9
  call void @llvm.lifetime.start.p0(i64 8, ptr %6) #9
  store i64 1, ptr %6, align 8
  call void @llvm.lifetime.start.p0(i64 8, ptr %7) #9
  store i64 56, ptr %7, align 8
  call void @llvm.lifetime.start.p0(i64 8, ptr %8) #9
  %10 = load i64, ptr %7, align 8
  %11 = icmp eq i64 %10, 1
  br i1 %11, label %12, label %15

12:                                               ; preds = %2
  %13 = load i64, ptr %6, align 8
  %14 = call noalias ptr @g_malloc0(i64 noundef %13) #10
  store ptr %14, ptr %8, align 8
  br label %36

15:                                               ; preds = %2
  %16 = load i64, ptr %6, align 8
  %17 = call i1 @llvm.is.constant.i64(i64 %16)
  br i1 %17, label %18, label %31

18:                                               ; preds = %15
  %19 = load i64, ptr %7, align 8
  %20 = icmp eq i64 %19, 0
  br i1 %20, label %26, label %21

21:                                               ; preds = %18
  %22 = load i64, ptr %6, align 8
  %23 = load i64, ptr %7, align 8
  %24 = udiv i64 -1, %23
  %25 = icmp ule i64 %22, %24
  br i1 %25, label %26, label %31

26:                                               ; preds = %21, %18
  %27 = load i64, ptr %6, align 8
  %28 = load i64, ptr %7, align 8
  %29 = mul i64 %27, %28
  %30 = call noalias ptr @g_malloc0(i64 noundef %29) #10
  store ptr %30, ptr %8, align 8
  br label %35

31:                                               ; preds = %21, %15
  %32 = load i64, ptr %6, align 8
  %33 = load i64, ptr %7, align 8
  %34 = call noalias ptr @g_malloc0_n(i64 noundef %32, i64 noundef %33) #11
  store ptr %34, ptr %8, align 8
  br label %35

35:                                               ; preds = %31, %26
  br label %36

36:                                               ; preds = %35, %12
  %37 = load ptr, ptr %8, align 8
  store ptr %37, ptr %9, align 8
  call void @llvm.lifetime.end.p0(i64 8, ptr %8) #9
  call void @llvm.lifetime.end.p0(i64 8, ptr %7) #9
  call void @llvm.lifetime.end.p0(i64 8, ptr %6) #9
  %38 = load ptr, ptr %9, align 8
  store ptr %38, ptr %5, align 8
  %39 = load ptr, ptr %3, align 8
  %40 = call noalias ptr @g_strdup(ptr noundef %39)
  %41 = load ptr, ptr %5, align 8
  %42 = getelementptr inbounds nuw %struct._dfilter_macro_t, ptr %41, i32 0, i32 0
  store ptr %40, ptr %42, align 8
  %43 = load ptr, ptr %4, align 8
  %44 = call noalias ptr @g_strdup(ptr noundef %43)
  %45 = load ptr, ptr %5, align 8
  %46 = getelementptr inbounds nuw %struct._dfilter_macro_t, ptr %45, i32 0, i32 1
  store ptr %44, ptr %46, align 8
  %47 = load ptr, ptr %5, align 8
  call void @macro_parse(ptr noundef %47)
  %48 = load ptr, ptr %5, align 8
  call void @llvm.lifetime.end.p0(i64 8, ptr %5) #9
  ret ptr %48
}

; Function Attrs: null_pointer_is_valid sspstrong uwtable
define internal zeroext i1 @check_macro(ptr noundef %0, ptr noundef %1, ptr noundef %2) #0 {
  %4 = alloca i1, align 1
  %5 = alloca ptr, align 8
  %6 = alloca ptr, align 8
  %7 = alloca ptr, align 8
  %8 = alloca ptr, align 8
  %9 = alloca i32, align 4
  store ptr %0, ptr %5, align 8
  store ptr %1, ptr %6, align 8
  store ptr %2, ptr %7, align 8
  %10 = load ptr, ptr %5, align 8
  %11 = load i8, ptr %10, align 1
  %12 = sext i8 %11 to i32
  %13 = icmp eq i32 %12, 0
  br i1 %13, label %14, label %16

14:                                               ; preds = %3
  %15 = load ptr, ptr %7, align 8
  store ptr @.str.15, ptr %15, align 8
  store i1 false, ptr %4, align 1
  br label %62

16:                                               ; preds = %3
  %17 = load ptr, ptr %6, align 8
  %18 = load i8, ptr %17, align 1
  %19 = sext i8 %18 to i32
  %20 = icmp eq i32 %19, 0
  br i1 %20, label %21, label %23

21:                                               ; preds = %16
  %22 = load ptr, ptr %7, align 8
  store ptr @.str.16, ptr %22, align 8
  store i1 false, ptr %4, align 1
  br label %62

23:                                               ; preds = %16
  call void @llvm.lifetime.start.p0(i64 8, ptr %8) #9
  %24 = load ptr, ptr %5, align 8
  store ptr %24, ptr %8, align 8
  br label %25

25:                                               ; preds = %49, %23
  %26 = load ptr, ptr %8, align 8
  %27 = load i8, ptr %26, align 1
  %28 = sext i8 %27 to i32
  %29 = icmp ne i32 %28, 0
  br i1 %29, label %31, label %30

30:                                               ; preds = %25
  store i32 2, ptr %9, align 4
  br label %52

31:                                               ; preds = %25
  %32 = load ptr, ptr @g_ascii_table, align 8
  %33 = load ptr, ptr %8, align 8
  %34 = load i8, ptr %33, align 1
  %35 = zext i8 %34 to i64
  %36 = getelementptr i16, ptr %32, i64 %35
  %37 = load i16, ptr %36, align 2
  %38 = zext i16 %37 to i32
  %39 = and i32 %38, 1
  %40 = icmp ne i32 %39, 0
  br i1 %40, label %48, label %41

41:                                               ; preds = %31
  %42 = load ptr, ptr %8, align 8
  %43 = load i8, ptr %42, align 1
  %44 = sext i8 %43 to i32
  %45 = icmp eq i32 %44, 95
  br i1 %45, label %48, label %46

46:                                               ; preds = %41
  %47 = load ptr, ptr %7, align 8
  store ptr @.str.17, ptr %47, align 8
  store i1 false, ptr %4, align 1
  store i32 1, ptr %9, align 4
  br label %52

48:                                               ; preds = %41, %31
  br label %49

49:                                               ; preds = %48
  %50 = load ptr, ptr %8, align 8
  %51 = getelementptr i8, ptr %50, i32 1
  store ptr %51, ptr %8, align 8
  br label %25, !llvm.loop !17

52:                                               ; preds = %46, %30
  call void @llvm.lifetime.end.p0(i64 8, ptr %8) #9
  %53 = load i32, ptr %9, align 4
  switch i32 %53, label %64 [
    i32 2, label %54
    i32 1, label %62
  ]

54:                                               ; preds = %52
  %55 = load ptr, ptr @macros_table, align 8
  %56 = load ptr, ptr %5, align 8
  %57 = call i32 @g_hash_table_contains(ptr noundef %55, ptr noundef %56)
  %58 = icmp ne i32 %57, 0
  br i1 %58, label %59, label %61

59:                                               ; preds = %54
  %60 = load ptr, ptr %7, align 8
  store ptr @.str.18, ptr %60, align 8
  store i1 false, ptr %4, align 1
  br label %62

61:                                               ; preds = %54
  store i1 true, ptr %4, align 1
  br label %62

62:                                               ; preds = %61, %59, %52, %21, %14
  %63 = load i1, ptr %4, align 1
  ret i1 %63

64:                                               ; preds = %52
  unreachable
}

; Function Attrs: null_pointer_is_valid sspstrong uwtable
define void @dfilter_macro_reload() #0 {
  %1 = alloca ptr, align 8
  %2 = alloca ptr, align 8
  %3 = alloca ptr, align 8
  %4 = alloca i32, align 4
  %5 = alloca ptr, align 8
  %6 = alloca ptr, align 8
  call void @convert_old_uat_file()
  %7 = load ptr, ptr @macros_table, align 8
  call void @g_hash_table_remove_all(ptr noundef %7)
  call void @llvm.lifetime.start.p0(i64 8, ptr %1) #9
  %8 = call ptr @ws_filter_list_read(i32 noundef 2)
  store ptr %8, ptr %1, align 8
  call void @llvm.lifetime.start.p0(i64 8, ptr %2) #9
  call void @llvm.lifetime.start.p0(i64 8, ptr %3) #9
  %9 = load ptr, ptr %1, align 8
  %10 = getelementptr inbounds nuw %struct.filter_list_t, ptr %9, i32 0, i32 1
  %11 = load ptr, ptr %10, align 8
  store ptr %11, ptr %3, align 8
  br label %12

12:                                               ; preds = %57, %0
  %13 = load ptr, ptr %3, align 8
  %14 = icmp ne ptr %13, null
  br i1 %14, label %16, label %15

15:                                               ; preds = %12
  store i32 2, ptr %4, align 4
  call void @llvm.lifetime.end.p0(i64 8, ptr %3) #9
  br label %61

16:                                               ; preds = %12
  call void @llvm.lifetime.start.p0(i64 8, ptr %5) #9
  %17 = load ptr, ptr %3, align 8
  %18 = getelementptr inbounds nuw %struct._GList, ptr %17, i32 0, i32 0
  %19 = load ptr, ptr %18, align 8
  store ptr %19, ptr %5, align 8
  %20 = load ptr, ptr %5, align 8
  %21 = getelementptr inbounds nuw %struct.filter_def, ptr %20, i32 0, i32 0
  %22 = load ptr, ptr %21, align 8
  %23 = load ptr, ptr %5, align 8
  %24 = getelementptr inbounds nuw %struct.filter_def, ptr %23, i32 0, i32 1
  %25 = load ptr, ptr %24, align 8
  %26 = call zeroext i1 @check_macro(ptr noundef %22, ptr noundef %25, ptr noundef %2)
  br i1 %26, label %35, label %27

27:                                               ; preds = %16
  br label %28

28:                                               ; preds = %27
  %29 = load ptr, ptr %5, align 8
  %30 = getelementptr inbounds nuw %struct.filter_def, ptr %29, i32 0, i32 0
  %31 = load ptr, ptr %30, align 8
  %32 = load ptr, ptr %2, align 8
  call void (ptr, i32, ptr, i64, ptr, ptr, ...) @ws_log_full(ptr noundef @.str, i32 noundef 5, ptr noundef @.str.1, i64 noundef 548, ptr noundef @__func__.dfilter_macro_reload, ptr noundef @.str.2, ptr noundef %31, ptr noundef %32)
  br label %33

33:                                               ; preds = %28
  br label %34

34:                                               ; preds = %33
  store i32 4, ptr %4, align 4
  br label %54

35:                                               ; preds = %16
  call void @llvm.lifetime.start.p0(i64 8, ptr %6) #9
  %36 = load ptr, ptr %5, align 8
  %37 = getelementptr inbounds nuw %struct.filter_def, ptr %36, i32 0, i32 0
  %38 = load ptr, ptr %37, align 8
  %39 = load ptr, ptr %5, align 8
  %40 = getelementptr inbounds nuw %struct.filter_def, ptr %39, i32 0, i32 1
  %41 = load ptr, ptr %40, align 8
  %42 = call ptr @macro_new(ptr noundef %38, ptr noundef %41)
  store ptr %42, ptr %6, align 8
  %43 = load ptr, ptr %6, align 8
  %44 = icmp ne ptr %43, null
  br i1 %44, label %45, label %53

45:                                               ; preds = %35
  %46 = load ptr, ptr @macros_table, align 8
  %47 = load ptr, ptr %5, align 8
  %48 = getelementptr inbounds nuw %struct.filter_def, ptr %47, i32 0, i32 0
  %49 = load ptr, ptr %48, align 8
  %50 = call noalias ptr @g_strdup(ptr noundef %49)
  %51 = load ptr, ptr %6, align 8
  %52 = call i32 @g_hash_table_insert(ptr noundef %46, ptr noundef %50, ptr noundef %51)
  br label %53

53:                                               ; preds = %45, %35
  call void @llvm.lifetime.end.p0(i64 8, ptr %6) #9
  store i32 0, ptr %4, align 4
  br label %54

54:                                               ; preds = %53, %34
  call void @llvm.lifetime.end.p0(i64 8, ptr %5) #9
  %55 = load i32, ptr %4, align 4
  switch i32 %55, label %63 [
    i32 0, label %56
    i32 4, label %57
  ]

56:                                               ; preds = %54
  br label %57

57:                                               ; preds = %56, %54
  %58 = load ptr, ptr %3, align 8
  %59 = getelementptr inbounds nuw %struct._GList, ptr %58, i32 0, i32 1
  %60 = load ptr, ptr %59, align 8
  store ptr %60, ptr %3, align 8
  br label %12, !llvm.loop !16

61:                                               ; preds = %15
  %62 = load ptr, ptr %1, align 8
  call void @ws_filter_list_free(ptr noundef %62)
  call void @llvm.lifetime.end.p0(i64 8, ptr %2) #9
  call void @llvm.lifetime.end.p0(i64 8, ptr %1) #9
  ret void

63:                                               ; preds = %54
  unreachable
}