; Function Attrs: null_pointer_is_valid sspstrong uwtable
define void @dfilter_macro_reload() local_unnamed_addr #0 {
  tail call void @convert_old_uat_file()
  %1 = load ptr, ptr @macros_table, align 8
  tail call void @g_hash_table_remove_all(ptr noundef %1)
  %2 = tail call ptr @ws_filter_list_read(i32 noundef 2)
  %.0.in20 = getelementptr inbounds nuw i8, ptr %2, i64 8
  %.021 = load ptr, ptr %.0.in20, align 8
  %.not22 = icmp eq ptr %.021, null
  br i1 %.not22, label %._crit_edge, label %.lr.ph

.lr.ph:                                           ; preds = %0
  %3 = load ptr, ptr @g_ascii_table, align 8
  br label %4

._crit_edge:                                      ; preds = %36, %0
  tail call void @ws_filter_list_free(ptr noundef %2)
  ret void

4:                                                ; preds = %.lr.ph, %36
  %.023 = phi ptr [ %.021, %.lr.ph ], [ %.0, %36 ]
  %5 = load ptr, ptr %.023, align 8
  %6 = load ptr, ptr %5, align 8
  %7 = getelementptr inbounds nuw i8, ptr %5, i64 8
  %8 = load i8, ptr %6, align 1
  %9 = icmp eq i8 %8, 0
  br i1 %9, label %.sink.split.i, label %10

10:                                               ; preds = %4
  %11 = load ptr, ptr %7, align 8
  %12 = load i8, ptr %11, align 1
  %13 = icmp eq i8 %12, 0
  br i1 %13, label %.sink.split.i, label %.preheader.i

.preheader.i:                                     ; preds = %10, %20
  %.01321.i = phi ptr [ %21, %20 ], [ %6, %10 ]
  %14 = phi i8 [ %.pr.i, %20 ], [ %8, %10 ]
  %15 = zext i8 %14 to i64
  %16 = getelementptr i16, ptr %3, i64 %15
  %17 = load i16, ptr %16, align 2
  %18 = and i16 %17, 1
  %.not16.i = icmp ne i16 %18, 0
  %19 = icmp eq i8 %14, 95
  %or.cond.i = or i1 %19, %.not16.i
  br i1 %or.cond.i, label %20, label %.sink.split.i

20:                                               ; preds = %.preheader.i
  %21 = getelementptr i8, ptr %.01321.i, i64 1
  %.pr.i = load i8, ptr %21, align 1
  %.not.i = icmp eq i8 %.pr.i, 0
  br i1 %.not.i, label %22, label %.preheader.i, !llvm.loop !14

22:                                               ; preds = %20
  %23 = load ptr, ptr @macros_table, align 8
  %24 = tail call i32 @g_hash_table_contains(ptr noundef %23, ptr noundef %6)
  %.not17.i = icmp eq i32 %24, 0
  %.pre = load ptr, ptr %5, align 8
  br i1 %.not17.i, label %check_macro.exit, label %.sink.split.i

.sink.split.i:                                    ; preds = %.preheader.i, %22, %10, %4
  %25 = phi ptr [ %6, %10 ], [ %6, %4 ], [ %.pre, %22 ], [ %6, %.preheader.i ]
  %.1.ph = phi ptr [ @.str.16, %10 ], [ @.str.15, %4 ], [ @.str.18, %22 ], [ @.str.17, %.preheader.i ]
  tail call void (ptr, i32, ptr, i64, ptr, ptr, ...) @ws_log_full(ptr noundef nonnull @.str, i32 noundef 5, ptr noundef nonnull @.str.1, i64 noundef 548, ptr noundef nonnull @__func__.dfilter_macro_reload, ptr noundef nonnull @.str.2, ptr noundef %25, ptr noundef nonnull %.1.ph)
  br label %36

check_macro.exit:                                 ; preds = %22
  %26 = load ptr, ptr %7, align 8
  %27 = tail call noalias dereferenceable_or_null(56) ptr @g_malloc0(i64 noundef 56) #10
  %28 = tail call noalias ptr @g_strdup(ptr noundef %.pre)
  store ptr %28, ptr %27, align 8
  %29 = tail call noalias ptr @g_strdup(ptr noundef %26)
  %30 = getelementptr inbounds nuw i8, ptr %27, i64 8
  store ptr %29, ptr %30, align 8
  tail call void @macro_parse(ptr noundef %27)
  %.not14 = icmp eq ptr %27, null
  br i1 %.not14, label %36, label %31

31:                                               ; preds = %check_macro.exit
  %32 = load ptr, ptr @macros_table, align 8
  %33 = load ptr, ptr %5, align 8
  %34 = tail call noalias ptr @g_strdup(ptr noundef %33)
  %35 = tail call i32 @g_hash_table_insert(ptr noundef %32, ptr noundef %34, ptr noundef nonnull %27)
  br label %36

36:                                               ; preds = %check_macro.exit, %31, %.sink.split.i
  %.0.in = getelementptr inbounds nuw i8, ptr %.023, i64 8
  %.0 = load ptr, ptr %.0.in, align 8
  %.not = icmp eq ptr %.0, null
  br i1 %.not, label %._crit_edge, label %4, !llvm.loop !15
}